target datalayout = "e-m:e-p270:32:32-p271:32:32-p272:64:64-i64:64-i128:128-f80:128-n8:16:32:64-S128"
target triple = "x86_64-pc-linux-gnu"

%struct.repository = type { ptr, ptr, ptr, ptr, ptr, %struct.strmap, %struct.strmap, %struct.repo_path_cache, ptr, ptr, ptr, ptr, %struct.repo_settings, ptr, ptr, ptr, ptr, ptr, ptr, i32, i32, i32, ptr, ptr, i32, i32, i8 }
%struct.strmap = type { %struct.hashmap, ptr, i8 }
%struct.hashmap = type { ptr, ptr, ptr, i32, i32, i32, i32, i8 }
%struct.repo_path_cache = type { ptr, ptr, ptr, ptr, ptr, ptr, ptr }
%struct.repo_settings = type { i32, i32, i32, i32, i32, i32, i32, i32, i32, i32, i32, i32, ptr, i32, i32, i32, i32, i32, i32, i32, i64, i64, i64 }
%struct.object_id = type { [32 x i8], i32 }
%struct.index_state = type { ptr, i32, i32, i32, i32, ptr, ptr, ptr, %struct.cache_time, i8, i32, %struct.hashmap, %struct.hashmap, %struct.object_id, ptr, ptr, ptr, ptr, ptr, ptr, ptr }
%struct.cache_time = type { i32, i32 }

@the_repository = external global ptr, align 8
@core_apply_sparse_checkout = external global i32, align 4
@core_sparse_checkout_cone = external global i32, align 4
@.str.27 = private unnamed_addr constant [37 x i8] c"failed to modify sparse-index config\00", align 1

; Function Attrs: nounwind uwtable
define internal i32 @update_cone_mode(ptr noundef %0) #0 {
  %2 = alloca i32, align 4
  %3 = alloca ptr, align 8
  store ptr %0, ptr %3, align 8, !tbaa !103
  %4 = load ptr, ptr %3, align 8, !tbaa !103
  %5 = load i32, ptr %4, align 4, !tbaa !4
  %6 = icmp eq i32 %5, -1
  br i1 %6, label %7, label %13

7:                                                ; preds = %1
  %8 = load i32, ptr @core_apply_sparse_checkout, align 4, !tbaa !4
  %9 = icmp ne i32 %8, 0
  br i1 %9, label %10, label %13

10:                                               ; preds = %7
  %11 = load i32, ptr @core_sparse_checkout_cone, align 4, !tbaa !4
  %12 = load ptr, ptr %3, align 8, !tbaa !103
  store i32 %11, ptr %12, align 4, !tbaa !4
  br label %13

13:                                               ; preds = %10, %7, %1
  store i32 1, ptr @core_apply_sparse_checkout, align 4, !tbaa !4
  %14 = load ptr, ptr %3, align 8, !tbaa !103
  %15 = load i32, ptr %14, align 4, !tbaa !4
  %16 = icmp eq i32 %15, 1
  br i1 %16, label %21, label %17

17:                                               ; preds = %13
  %18 = load ptr, ptr %3, align 8, !tbaa !103
  %19 = load i32, ptr %18, align 4, !tbaa !4
  %20 = icmp eq i32 %19, -1
  br i1 %20, label %21, label %22

21:                                               ; preds = %17, %13
  store i32 1, ptr @core_sparse_checkout_cone, align 4, !tbaa !4
  store i32 2, ptr %2, align 4
  br label %23

22:                                               ; preds = %17
  store i32 0, ptr @core_sparse_checkout_cone, align 4, !tbaa !4
  store i32 1, ptr %2, align 4
  br label %23

23:                                               ; preds = %22, %21
  %24 = load i32, ptr %2, align 4
  ret i32 %24
}

; Function Attrs: nounwind uwtable
define internal i32 @update_modes(ptr noundef %0, ptr noundef %1) #0 {
  %3 = alloca i32, align 4
  %4 = alloca ptr, align 8
  %5 = alloca ptr, align 8
  %6 = alloca i32, align 4
  %7 = alloca i32, align 4
  %8 = alloca i32, align 4
  store ptr %0, ptr %4, align 8, !tbaa !103
  store ptr %1, ptr %5, align 8, !tbaa !103
  call void @llvm.lifetime.start.p0(i64 4, ptr %6) #9
  call void @llvm.lifetime.start.p0(i64 4, ptr %7) #9
  %9 = load ptr, ptr %4, align 8, !tbaa !103
  %10 = load i32, ptr %9, align 4, !tbaa !4
  %11 = icmp ne i32 %10, -1
  br i1 %11, label %16, label %12

12:                                               ; preds = %2
  %13 = load i32, ptr @core_apply_sparse_checkout, align 4, !tbaa !4
  %14 = icmp ne i32 %13, 0
  %15 = xor i1 %14, true
  br label %16

16:                                               ; preds = %12, %2
  %17 = phi i1 [ true, %2 ], [ %15, %12 ]
  %18 = zext i1 %17 to i32
  store i32 %18, ptr %7, align 4, !tbaa !4
  %19 = load ptr, ptr %4, align 8, !tbaa !103
  %20 = call i32 @update_cone_mode(ptr noundef %19)
  store i32 %20, ptr %6, align 4, !tbaa !4
  %21 = load i32, ptr %7, align 4, !tbaa !4
  %22 = icmp ne i32 %21, 0
  br i1 %22, label %23, label %28

23:                                               ; preds = %16
  %24 = load i32, ptr %6, align 4, !tbaa !4
  %25 = call i32 @set_config(i32 noundef %24)
  %26 = icmp ne i32 %25, 0
  br i1 %26, label %27, label %28

27:                                               ; preds = %23
  store i32 1, ptr %3, align 4
  store i32 1, ptr %8, align 4
  br label %59

28:                                               ; preds = %23, %16
  %29 = load ptr, ptr %5, align 8, !tbaa !103
  %30 = load i32, ptr %29, align 4, !tbaa !4
  %31 = icmp sge i32 %30, 0
  br i1 %31, label %32, label %58

32:                                               ; preds = %28
  %33 = load ptr, ptr @the_repository, align 8, !tbaa !13
  %34 = load ptr, ptr %5, align 8, !tbaa !103
  %35 = load i32, ptr %34, align 4, !tbaa !4
  %36 = call i32 @set_sparse_index_config(ptr noundef %33, i32 noundef %35)
  %37 = icmp slt i32 %36, 0
  br i1 %37, label %38, label %40

38:                                               ; preds = %32
  %39 = call ptr @_(ptr noundef @.str.27)
  call void (ptr, ...) @die(ptr noundef %39) #10
  unreachable

40:                                               ; preds = %32
  %41 = load ptr, ptr @the_repository, align 8, !tbaa !13
  %42 = call i32 @repo_read_index(ptr noundef %41)
  %43 = load ptr, ptr @the_repository, align 8, !tbaa !13
  %44 = getelementptr inbounds nuw %struct.repository, ptr %43, i32 0, i32 15
  %45 = load ptr, ptr %44, align 8, !tbaa !105
  %46 = getelementptr inbounds nuw %struct.index_state, ptr %45, i32 0, i32 9
  %47 = load i8, ptr %46, align 8
  %48 = and i8 %47, -9
  %49 = or i8 %48, 8
  store i8 %49, ptr %46, align 8
  %50 = load ptr, ptr %5, align 8, !tbaa !103
  %51 = load i32, ptr %50, align 4, !tbaa !4
  %52 = icmp ne i32 %51, 0
  br i1 %52, label %57, label %53

53:                                               ; preds = %40
  %54 = load ptr, ptr @the_repository, align 8, !tbaa !13
  %55 = getelementptr inbounds nuw %struct.repository, ptr %54, i32 0, i32 15
  %56 = load ptr, ptr %55, align 8, !tbaa !105
  call void @ensure_full_index(ptr noundef %56)
  br label %57

57:                                               ; preds = %53, %40
  br label %58

58:                                               ; preds = %57, %28
  store i32 0, ptr %3, align 4
  store i32 1, ptr %8, align 4
  br label %59

59:                                               ; preds = %58, %27
  call void @llvm.lifetime.end.p0(i64 4, ptr %7) #9
  call void @llvm.lifetime.end.p0(i64 4, ptr %6) #9
  %60 = load i32, ptr %3, align 4
  ret i32 %60
}